target datalayout = "e-m:e-p270:32:32-p271:32:32-p272:64:64-i64:64-i128:128-f80:128-n8:16:32:64-S128"
target triple = "x86_64-pc-linux-gnu"

%struct.cbs_st = type { ptr, i64 }

@.str = private unnamed_addr constant [124 x i8] c"generated/home/dtcxzyw/WorkSpace/Projects/compilers/llvm-opt-benchmark/bench/libquic/libquic/boringssl/crypto/pkcs8/pkcs8.c\00", align 1

; Function Attrs: nounwind uwtable
define hidden ptr @EVP_PKCS82PKEY(ptr noundef %0) #0 {
  %2 = alloca ptr, align 8
  %3 = alloca ptr, align 8
  %4 = alloca ptr, align 8
  %5 = alloca i32, align 4
  %6 = alloca i32, align 4
  %7 = alloca %struct.cbs_st, align 8
  %8 = alloca ptr, align 8
  store ptr %0, ptr %3, align 8, !tbaa !25
  call void @llvm.lifetime.start.p0(i64 8, ptr %4) #8
  store ptr null, ptr %4, align 8, !tbaa !11
  call void @llvm.lifetime.start.p0(i64 4, ptr %5) #8
  %9 = load ptr, ptr %3, align 8, !tbaa !25
  %10 = call i32 @i2d_PKCS8_PRIV_KEY_INFO(ptr noundef %9, ptr noundef %4)
  store i32 %10, ptr %5, align 4, !tbaa !13
  %11 = load i32, ptr %5, align 4, !tbaa !13
  %12 = icmp slt i32 %11, 0
  br i1 %12, label %13, label %14

13:                                               ; preds = %1
  store ptr null, ptr %2, align 8
  store i32 1, ptr %6, align 4
  br label %31

14:                                               ; preds = %1
  call void @llvm.lifetime.start.p0(i64 16, ptr %7) #8
  %15 = load ptr, ptr %4, align 8, !tbaa !11
  %16 = load i32, ptr %5, align 4, !tbaa !13
  %17 = sext i32 %16 to i64
  call void @CBS_init(ptr noundef %7, ptr noundef %15, i64 noundef %17)
  call void @llvm.lifetime.start.p0(i64 8, ptr %8) #8
  %18 = call ptr @EVP_parse_private_key(ptr noundef %7)
  store ptr %18, ptr %8, align 8, !tbaa !46
  %19 = load ptr, ptr %8, align 8, !tbaa !46
  %20 = icmp eq ptr %19, null
  br i1 %20, label %24, label %21

21:                                               ; preds = %14
  %22 = call i64 @CBS_len(ptr noundef %7)
  %23 = icmp ne i64 %22, 0
  br i1 %23, label %24, label %27

24:                                               ; preds = %21, %14
  call void @ERR_put_error(i32 noundef 19, i32 noundef 0, i32 noundef 104, ptr noundef @.str, i32 noundef 614)
  %25 = load ptr, ptr %8, align 8, !tbaa !46
  call void @EVP_PKEY_free(ptr noundef %25)
  %26 = load ptr, ptr %4, align 8, !tbaa !11
  call void @free(ptr noundef %26) #8
  store ptr null, ptr %2, align 8
  store i32 1, ptr %6, align 4
  br label %30

27:                                               ; preds = %21
  %28 = load ptr, ptr %4, align 8, !tbaa !11
  call void @free(ptr noundef %28) #8
  %29 = load ptr, ptr %8, align 8, !tbaa !46
  store ptr %29, ptr %2, align 8
  store i32 1, ptr %6, align 4
  br label %30

30:                                               ; preds = %27, %24
  call void @llvm.lifetime.end.p0(i64 8, ptr %8) #8
  call void @llvm.lifetime.end.p0(i64 16, ptr %7) #8
  br label %31

31:                                               ; preds = %30, %13
  call void @llvm.lifetime.end.p0(i64 4, ptr %5) #8
  call void @llvm.lifetime.end.p0(i64 8, ptr %4) #8
  %32 = load ptr, ptr %2, align 8
  ret ptr %32
}