; Function Attrs: nounwind uwtable
define hidden ptr @EVP_PKCS82PKEY(ptr noundef %0) local_unnamed_addr #0 {
  %2 = alloca ptr, align 8
  %3 = alloca %struct.cbs_st, align 8
  call void @llvm.lifetime.start.p0(i64 8, ptr nonnull %2) #12
  store ptr null, ptr %2, align 8, !tbaa !6
  %4 = call i32 @i2d_PKCS8_PRIV_KEY_INFO(ptr noundef %0, ptr noundef nonnull %2) #12
  %5 = icmp slt i32 %4, 0
  br i1 %5, label %16, label %6

6:                                                ; preds = %1
  call void @llvm.lifetime.start.p0(i64 16, ptr nonnull %3) #12
  %7 = load ptr, ptr %2, align 8, !tbaa !6
  %8 = zext nneg i32 %4 to i64
  call void @CBS_init(ptr noundef nonnull %3, ptr noundef %7, i64 noundef %8) #12
  %9 = call ptr @EVP_parse_private_key(ptr noundef nonnull %3) #12
  %10 = icmp eq ptr %9, null
  br i1 %10, label %13, label %11

11:                                               ; preds = %6
  %12 = call i64 @CBS_len(ptr noundef nonnull %3) #12
  %.not = icmp eq i64 %12, 0
  br i1 %.not, label %14, label %13

13:                                               ; preds = %11, %6
  call void @ERR_put_error(i32 noundef 19, i32 noundef 0, i32 noundef 104, ptr noundef nonnull @.str, i32 noundef 614) #12
  call void @EVP_PKEY_free(ptr noundef %9) #12
  br label %14

14:                                               ; preds = %11, %13
  %.1 = phi ptr [ null, %13 ], [ %9, %11 ]
  %15 = load ptr, ptr %2, align 8, !tbaa !6
  call void @free(ptr noundef %15) #12
  call void @llvm.lifetime.end.p0(i64 16, ptr nonnull %3) #12
  br label %16

16:                                               ; preds = %1, %14
  %.0 = phi ptr [ %.1, %14 ], [ null, %1 ]
  call void @llvm.lifetime.end.p0(i64 8, ptr nonnull %2) #12
  ret ptr %.0
}